Certificate:
    Data:
        Version: 3 (0x2)
        Serial Number: 17746211697102869347 (0xf6473583dab2d363)
    Signature Algorithm: sha512WithRSAEncryption
        Issuer: C=CY, ST=Nicosia, L=Home, O=Antros Economides, OU=Network services, CN=Economides Root Certificate Authority
        Validity
            Not Before: Mar 30 17:30:58 2018 GMT
            Not After : Mar 29 17:30:58 2028 GMT
        Subject: C=CY, ST=Nicosia, L=Home, O=Antros Economides, OU=Network services, CN=Economides Root Certificate Authority
        Subject Public Key Info:
            Public Key Algorithm: rsaEncryption
                Public-Key: (4096 bit)
                Modulus:
                    00:9e:88:28:b5:8b:ec:22:6b:4e:80:dc:99:7a:b2:
                    eb:61:53:d5:2d:97:a4:e5:06:a6:b4:24:f0:7b:e7:
                    af:82:98:71:27:07:8d:1e:c1:1d:04:6c:ec:66:a4:
                    f5:39:df:bd:40:58:a2:78:a4:52:92:18:ba:b7:64:
                    64:4a:ee:1f:8e:19:ae:7e:76:b3:68:e1:14:bd:78:
                    d5:6c:b0:c9:29:9f:21:d2:c1:37:00:0b:16:c7:29:
                    fb:6b:fa:cf:46:c3:33:a0:89:71:c8:dd:df:ef:5a:
                    cb:13:5b:65:fb:94:cf:64:d1:7f:83:bb:45:7f:1a:
                    c6:0c:22:08:52:ea:2a:65:1c:03:97:10:e2:d7:5d:
                    72:14:9a:b6:13:d4:da:1d:d2:8b:3d:24:39:1a:5b:
                    83:74:f9:18:57:4b:c6:b3:6a:1f:41:1c:8a:54:ee:
                    47:b1:81:17:0a:24:99:60:29:a3:b1:e2:1d:8e:53:
                    5d:d0:5e:de:50:77:a7:de:f3:9b:c5:2f:42:fe:69:
                    70:8e:26:22:eb:ab:34:75:3f:c5:49:bf:42:cd:f4:
                    88:7b:a4:c3:9b:ac:63:42:4f:f6:8a:68:57:48:eb:
                    5d:bb:ef:7a:cb:11:2f:7e:ec:46:64:2c:8c:5d:9e:
                    94:c6:ec:9d:d1:b9:17:61:cb:60:00:7a:a2:b3:83:
                    c6:d9:02:18:94:b4:11:ae:e3:d7:f2:d3:26:bf:72:
                    00:fb:e9:b9:23:b1:c4:df:94:f5:df:e3:8e:19:2e:
                    44:79:cf:1f:cf:f9:6d:b3:bc:4b:c5:70:f6:bf:69:
                    87:16:65:64:5a:09:d6:f6:da:9e:30:b2:14:4f:7b:
                    a7:8a:9c:99:e8:2e:f2:82:7e:43:44:c5:29:44:b0:
                    e8:2c:be:11:c0:fc:07:c8:a1:12:8b:63:df:aa:f7:
                    d6:60:d6:c3:f9:b6:29:3a:ce:64:8f:23:13:66:ec:
                    10:fd:11:0c:f9:46:ac:52:28:e6:aa:29:f0:66:10:
                    2c:27:cf:54:88:eb:10:58:fa:f2:6a:36:c8:ca:28:
                    61:f0:c4:3c:53:da:f7:5c:2d:d0:b6:da:22:72:d3:
                    23:1b:19:91:6b:89:f5:97:65:2f:8e:22:8c:60:8e:
                    90:ec:f2:4d:f0:0c:67:6c:9d:3a:7b:c8:fb:c2:86:
                    12:c6:05:b6:61:8c:b4:9c:d0:e9:47:5c:f9:e7:15:
                    07:a3:1e:eb:00:46:d3:e6:5e:fa:43:5b:dc:97:2b:
                    d9:23:41:94:2d:84:78:7c:83:c4:1e:ac:01:e7:9c:
                    00:d3:c9:e6:fb:15:37:de:c9:95:b5:44:c5:d6:5d:
                    90:bf:bf:48:69:9e:a5:84:55:b1:7b:75:75:c1:69:
                    51:60:d5
                Exponent: 65537 (0x10001)
        X509v3 extensions:
            X509v3 Basic Constraints: critical
                CA:TRUE, pathlen:0
            Netscape Cert Type: 
                Object Signing, SSL CA, S/MIME CA, Object Signing CA
            Netscape Comment: 
                Economides Root Certificate Authority
            Netscape Revocation Url: 
                http://raspberrypi.home/ca/raspberrypi_home.ca.crl
            Netscape CA Revocation Url: 
                http://raspberrypi.home/ca/raspberrypi_home.ca.crl
            X509v3 Key Usage: critical
                Certificate Sign, CRL Sign
            X509v3 Extended Key Usage: 
                TLS Web Server Authentication, TLS Web Client Authentication, Code Signing, E-mail Protection, Time Stamping
            X509v3 Issuer Alternative Name: 
                URI:http://raspberrypi.home/ca/raspberrypi_home.ca.crt, DNS:raspberrypi.home, DNS:*.raspberrypi.home, email:ca@raspberrypi.home
            X509v3 Subject Alternative Name: 
                URI:http://raspberrypi.home/ca/raspberrypi_home.ca.crt, DNS:raspberrypi.home, DNS:*.raspberrypi.home, email:ca@raspberrypi.home
            X509v3 Subject Key Identifier: 
                DE:3A:A7:3C:CE:0D:29:8D:06:B2:3D:F3:EA:88:A2:59:E8:2D:75:21
            X509v3 Authority Key Identifier: 
                keyid:DE:3A:A7:3C:CE:0D:29:8D:06:B2:3D:F3:EA:88:A2:59:E8:2D:75:21
                DirName:/C=CY/ST=Nicosia/L=Home/O=Antros Economides/OU=Network services/CN=Economides Root Certificate Authority
                serial:F6:47:35:83:DA:B2:D3:63

            Authority Information Access: 
                CA Issuers - URI:http://raspberrypi.home/ca/raspberrypi_home.ca.crt

            X509v3 CRL Distribution Points: 

                Full Name:
                  URI:http://raspberrypi.home/ca/raspberrypi_home.ca.crl

    Signature Algorithm: sha512WithRSAEncryption
         4e:2e:70:d9:5d:c9:d0:f0:c2:18:71:90:fa:1e:d1:45:2e:36:
         80:95:f9:9e:a4:c4:bc:b1:29:f4:8d:e7:e3:e6:09:a4:2a:6a:
         19:a1:a7:8b:a7:b7:9a:fb:5d:c3:ba:05:7d:3c:b7:6b:ba:90:
         e6:09:d8:3f:9e:d9:4f:a2:37:00:be:b9:39:46:1b:71:2c:8d:
         bd:56:15:d1:b4:74:0b:5d:9c:f8:42:50:cf:22:f4:54:b5:59:
         c3:52:de:1c:87:6b:6b:0b:fc:3f:63:55:c8:8a:3d:02:5d:f1:
         7b:3e:ee:ba:f5:f3:7d:09:9b:c6:46:48:b0:aa:e1:f7:3c:f8:
         e0:a0:bd:97:05:cd:22:88:35:d7:12:e2:2f:19:ed:c4:3b:7f:
         be:e3:44:6b:93:2a:58:38:5f:26:11:91:34:42:02:5d:7e:3b:
         54:77:b7:3d:09:17:24:ed:3a:0f:f6:38:2f:6e:2b:cf:7a:14:
         8b:3c:e6:7d:a8:53:81:8c:d0:d7:94:e2:0f:34:c5:4b:13:e6:
         c6:db:69:c3:57:0e:ed:36:c8:73:e6:3e:18:94:eb:c2:81:c9:
         81:74:ce:66:e0:c1:05:96:66:a4:cc:89:a0:90:5a:98:65:07:
         e9:3f:4c:be:87:81:15:14:52:77:99:0e:16:dc:43:34:27:82:
         0c:61:27:f8:4c:8d:81:d1:07:8c:27:9d:f4:d4:68:8c:03:13:
         7d:b3:fd:b1:e4:bc:c7:20:c8:10:37:14:1e:ba:af:46:26:1a:
         d9:81:50:a7:dc:93:14:52:69:f5:62:35:fa:15:0a:29:3d:5b:
         60:62:d6:27:a2:ee:9c:eb:21:f7:d7:3e:63:22:b8:95:54:83:
         e5:d6:29:88:b8:14:16:2a:41:9e:d2:d1:14:8d:94:db:f2:dc:
         d9:0f:08:0d:02:38:e0:5b:24:73:d9:a5:00:42:15:d5:1a:58:
         96:f2:f0:64:94:22:93:65:d6:82:b1:d9:7e:15:3f:fe:17:f2:
         f8:27:5e:99:75:fe:af:6a:c4:6f:01:25:f6:55:8c:d8:6e:88:
         1c:18:55:8f:24:15:d9:b2:0d:be:72:da:35:40:e0:dd:64:7d:
         2a:1d:f6:cc:f1:0c:2e:e0:ba:29:e2:2f:4b:92:e1:44:43:56:
         05:f9:bc:ef:9c:e8:91:ce:e2:1b:d5:c0:ef:b8:95:f6:f3:50:
         99:80:6f:fc:52:a6:06:19:d7:1c:60:08:1a:6f:4b:5a:53:de:
         db:f0:c6:26:ff:84:d7:17:3f:5b:ca:2a:1c:e1:fb:71:9b:8e:
         73:db:78:d0:55:60:04:0a:08:b5:21:47:47:2f:8f:fb:f4:4d:
         59:b6:8a:00:39:1e:bc:0b
-----BEGIN CERTIFICATE-----
MIIJWjCCB0KgAwIBAgIJAPZHNYPastNjMA0GCSqGSIb3DQEBDQUAMIGVMQswCQYD
VQQGEwJDWTEQMA4GA1UECBMHTmljb3NpYTENMAsGA1UEBxMESG9tZTEaMBgGA1UE
ChMRQW50cm9zIEVjb25vbWlkZXMxGTAXBgNVBAsTEE5ldHdvcmsgc2VydmljZXMx
LjAsBgNVBAMTJUVjb25vbWlkZXMgUm9vdCBDZXJ0aWZpY2F0ZSBBdXRob3JpdHkw
HhcNMTgwMzMwMTczMDU4WhcNMjgwMzI5MTczMDU4WjCBlTELMAkGA1UEBhMCQ1kx
EDAOBgNVBAgTB05pY29zaWExDTALBgNVBAcTBEhvbWUxGjAYBgNVBAoTEUFudHJv
cyBFY29ub21pZGVzMRkwFwYDVQQLExBOZXR3b3JrIHNlcnZpY2VzMS4wLAYDVQQD
EyVFY29ub21pZGVzIFJvb3QgQ2VydGlmaWNhdGUgQXV0aG9yaXR5MIICIjANBgkq
hkiG9w0BAQEFAAOCAg8AMIICCgKCAgEAnogotYvsImtOgNyZerLrYVPVLZek5Qam
tCTwe+evgphxJweNHsEdBGzsZqT1Od+9QFiieKRSkhi6t2RkSu4fjhmufnazaOEU
vXjVbLDJKZ8h0sE3AAsWxyn7a/rPRsMzoIlxyN3f71rLE1tl+5TPZNF/g7tFfxrG
DCIIUuoqZRwDlxDi111yFJq2E9TaHdKLPSQ5GluDdPkYV0vGs2ofQRyKVO5HsYEX
CiSZYCmjseIdjlNd0F7eUHen3vObxS9C/mlwjiYi66s0dT/FSb9CzfSIe6TDm6xj
Qk/2imhXSOtdu+96yxEvfuxGZCyMXZ6Uxuyd0bkXYctgAHqis4PG2QIYlLQRruPX
8tMmv3IA++m5I7HE35T13+OOGS5Eec8fz/lts7xLxXD2v2mHFmVkWgnW9tqeMLIU
T3unipyZ6C7ygn5DRMUpRLDoLL4RwPwHyKESi2PfqvfWYNbD+bYpOs5kjyMTZuwQ
/REM+UasUijmqinwZhAsJ89UiOsQWPryajbIyihh8MQ8U9r3XC3QttoictMjGxmR
a4n1l2UvjiKMYI6Q7PJN8AxnbJ06e8j7woYSxgW2YYy0nNDpR1z55xUHox7rAEbT
5l76Q1vclyvZI0GULYR4fIPEHqwB55wA08nm+xU33smVtUTF1l2Qv79IaZ6lhFWx
e3V1wWlRYNUCAwEAAaOCA6kwggOlMBIGA1UdEwEB/wQIMAYBAf8CAQAwEQYJYIZI
AYb4QgEBBAQDAgAXMDQGCWCGSAGG+EIBDQQnFiVFY29ub21pZGVzIFJvb3QgQ2Vy
dGlmaWNhdGUgQXV0aG9yaXR5MEEGCWCGSAGG+EIBAwQ0FjJodHRwOi8vcmFzcGJl
cnJ5cGkuaG9tZS9jYS9yYXNwYmVycnlwaV9ob21lLmNhLmNybDBBBglghkgBhvhC
AQQENBYyaHR0cDovL3Jhc3BiZXJyeXBpLmhvbWUvY2EvcmFzcGJlcnJ5cGlfaG9t
ZS5jYS5jcmwwDgYDVR0PAQH/BAQDAgEGMDsGA1UdJQQ0MDIGCCsGAQUFBwMBBggr
BgEFBQcDAgYIKwYBBQUHAwMGCCsGAQUFBwMEBggrBgEFBQcDCDB4BgNVHRIEcTBv
hjJodHRwOi8vcmFzcGJlcnJ5cGkuaG9tZS9jYS9yYXNwYmVycnlwaV9ob21lLmNh
LmNydIIQcmFzcGJlcnJ5cGkuaG9tZYISKi5yYXNwYmVycnlwaS5ob21lgRNjYUBy
YXNwYmVycnlwaS5ob21lMHgGA1UdEQRxMG+GMmh0dHA6Ly9yYXNwYmVycnlwaS5o
b21lL2NhL3Jhc3BiZXJyeXBpX2hvbWUuY2EuY3J0ghByYXNwYmVycnlwaS5ob21l
ghIqLnJhc3BiZXJyeXBpLmhvbWWBE2NhQHJhc3BiZXJyeXBpLmhvbWUwHQYDVR0O
BBYEFN46pzzODSmNBrI98+qIolnoLXUhMIHKBgNVHSMEgcIwgb+AFN46pzzODSmN
BrI98+qIolnoLXUhoYGbpIGYMIGVMQswCQYDVQQGEwJDWTEQMA4GA1UECBMHTmlj
b3NpYTENMAsGA1UEBxMESG9tZTEaMBgGA1UEChMRQW50cm9zIEVjb25vbWlkZXMx
GTAXBgNVBAsTEE5ldHdvcmsgc2VydmljZXMxLjAsBgNVBAMTJUVjb25vbWlkZXMg
Um9vdCBDZXJ0aWZpY2F0ZSBBdXRob3JpdHmCCQD2RzWD2rLTYzBOBggrBgEFBQcB
AQRCMEAwPgYIKwYBBQUHMAKGMmh0dHA6Ly9yYXNwYmVycnlwaS5ob21lL2NhL3Jh
c3BiZXJyeXBpX2hvbWUuY2EuY3J0MEMGA1UdHwQ8MDowOKA2oDSGMmh0dHA6Ly9y
YXNwYmVycnlwaS5ob21lL2NhL3Jhc3BiZXJyeXBpX2hvbWUuY2EuY3JsMA0GCSqG
SIb3DQEBDQUAA4ICAQBOLnDZXcnQ8MIYcZD6HtFFLjaAlfmepMS8sSn0jefj5gmk
KmoZoaeLp7ea+13DugV9PLdrupDmCdg/ntlPojcAvrk5RhtxLI29VhXRtHQLXZz4
QlDPIvRUtVnDUt4ch2trC/w/Y1XIij0CXfF7Pu669fN9CZvGRkiwquH3PPjgoL2X
Bc0iiDXXEuIvGe3EO3++40RrkypYOF8mEZE0QgJdfjtUd7c9CRck7ToP9jgvbivP
ehSLPOZ9qFOBjNDXlOIPNMVLE+bG22nDVw7tNshz5j4YlOvCgcmBdM5m4MEFlmak
zImgkFqYZQfpP0y+h4EVFFJ3mQ4W3EM0J4IMYSf4TI2B0QeMJ5301GiMAxN9s/2x
5LzHIMgQNxQeuq9GJhrZgVCn3JMUUmn1YjX6FQopPVtgYtYnou6c6yH31z5jIriV
VIPl1imIuBQWKkGe0tEUjZTb8tzZDwgNAjjgWyRz2aUAQhXVGliW8vBklCKTZdaC
sdl+FT/+F/L4J16Zdf6vasRvASX2VYzYbogcGFWPJBXZsg2+cto1QODdZH0qHfbM
8Qwu4Lop4i9LkuFEQ1YF+bzvnOiRzuIb1cDvuJX281CZgG/8UqYGGdccYAgab0ta
U97b8MYm/4TXFz9byioc4ftxm45z23jQVWAECgi1IUdHL4/79E1ZtooAOR68Cw==
-----END CERTIFICATE-----
