Certificate:
    Data:
        Version: 3 (0x2)
        Serial Number:
            93:25:80:f1:ef:bf:25:eb
    Signature Algorithm: sha512WithRSAEncryption
        Issuer: C=CY, ST=Nicosia, L=Palaipafou 7, Strovolos, O=Andreas Economides, OU=Internet Encryption Division, CN=Andreas Economides Root Certificate Authority
        Validity
            Not Before: Aug 25 09:08:15 2017 GMT
            Not After : Aug 24 09:08:15 2022 GMT
        Subject: C=CY, ST=Nicosia, L=Palaipafou 7, Strovolos, O=Andreas Economides, OU=Internet Encryption Division, CN=raspberrypi.lan
        Subject Public Key Info:
            Public Key Algorithm: rsaEncryption
                Public-Key: (2048 bit)
                Modulus:
                    00:d3:93:fe:9c:72:8f:62:6d:02:23:7e:0a:85:41:
                    58:64:32:39:f2:21:5e:48:ee:44:6f:3a:b5:71:43:
                    f4:c3:20:81:48:f3:e3:3b:a4:61:15:fb:7b:b2:5e:
                    09:78:2c:24:6f:74:a1:43:9f:5d:75:e8:31:fa:4a:
                    11:2c:72:61:e0:a1:bb:fb:ed:66:9e:7d:40:30:69:
                    d9:c0:2d:9c:7f:44:f0:4b:ad:23:57:90:65:8f:59:
                    22:0f:4c:18:cc:47:c8:eb:37:7f:a1:79:9a:55:92:
                    71:23:6a:c5:a6:61:29:19:5d:2d:b9:97:cc:68:44:
                    bc:ae:a4:6c:6f:6e:10:b4:22:ee:d0:2c:33:59:f9:
                    6a:62:2d:77:2e:4e:23:f3:6a:50:de:d4:4c:8e:69:
                    4c:40:14:17:10:2c:8e:24:ce:56:23:5c:3f:97:79:
                    04:e6:e3:c8:2d:c3:da:dd:38:b6:10:41:c3:2c:21:
                    6c:61:5c:62:bd:f9:20:2c:43:97:8b:2f:8d:0b:10:
                    ec:c1:21:1a:10:60:d0:fd:92:b5:ab:65:93:74:f0:
                    19:38:74:aa:80:41:90:a2:86:3e:cc:91:cd:32:e9:
                    1d:20:37:73:f2:4a:72:5b:17:98:71:11:e9:9a:ed:
                    0e:1b:a1:47:e5:e6:70:39:83:c1:ed:67:6d:81:5c:
                    3d:13
                Exponent: 65537 (0x10001)
        X509v3 extensions:
            X509v3 Basic Constraints: critical
                CA:FALSE
            Netscape Cert Type: 
                SSL Server
            Netscape Revocation Url: 
                http://raspberrypi.lan/ca/raspberrypi_lan.ca.crl
            X509v3 Key Usage: critical
                Key Encipherment, Key Agreement
            X509v3 Extended Key Usage: 
                TLS Web Server Authentication
            X509v3 Issuer Alternative Name: 
                URI:http://raspberrypi.lan/ca/raspberrypi_lan.ca.crt, DNS:raspberrypi.lan, DNS:*.raspberrypi.lan, email:antroseconomides@hotmail.com
            X509v3 Subject Alternative Name: 
                URI:http://raspberrypi.lan/ca/raspberrypi_lan.ca.crt, email:antroseconomides@hotmail.com, DNS:raspberrypi.lan, IP Address:192.168.1.254
            X509v3 Subject Key Identifier: 
                91:92:9B:19:75:5B:DC:4E:7D:E2:7E:14:00:9D:B8:F9:73:B7:77:34
            X509v3 Authority Key Identifier: 
                keyid:0A:D9:B3:A4:4E:65:D4:EB:83:41:CD:01:25:F3:31:0E:DE:6E:B3:F2
                DirName:/C=CY/ST=Nicosia/L=Palaipafou 7, Strovolos/O=Andreas Economides/OU=Internet Encryption Division/CN=Andreas Economides Root Certificate Authority
                serial:93:25:80:F1:EF:BF:25:E1

            Authority Information Access: 
                CA Issuers - URI:http://raspberrypi.lan/ca/raspberrypi_lan.ca.crt

            X509v3 CRL Distribution Points: 

                Full Name:
                  URI:http://raspberrypi.lan/ca/raspberrypi_lan.ca.crl

    Signature Algorithm: sha512WithRSAEncryption
         23:f0:d8:98:2d:07:88:1e:b2:dc:e9:c8:74:aa:3b:4e:6f:f8:
         e3:c0:0c:f0:38:d2:70:8c:b1:09:2f:b3:7c:0d:24:1e:59:0f:
         04:d9:d7:9e:ef:51:b8:20:10:c4:24:05:9d:61:27:29:5a:d7:
         1a:68:f9:2c:3b:02:3d:70:4b:df:f9:1a:1a:13:5c:90:a7:93:
         5b:31:83:ad:cd:b6:d4:1d:3e:a5:37:55:31:fa:4f:5c:99:08:
         7a:be:71:eb:89:3c:48:2e:0b:40:86:ab:17:6e:c0:0a:6b:91:
         d9:4b:ac:28:8b:a8:2e:73:83:7d:fe:7f:25:49:bf:93:c8:5a:
         2f:18:1e:f9:b2:79:1d:3d:e6:33:3e:04:33:cd:cd:5a:12:a5:
         a6:36:49:1e:82:fc:c2:37:c2:88:c1:0f:59:46:e3:92:87:18:
         87:b2:fc:10:42:77:f5:c4:55:1b:ee:d4:3a:ef:d8:cf:0f:46:
         4a:a1:b3:23:7f:f9:ec:7c:55:5b:29:73:82:d1:fb:20:ac:36:
         a7:76:f9:d8:79:bf:bd:5a:a3:60:57:5c:c4:d6:93:9b:6c:bf:
         e6:50:3e:aa:29:c9:83:56:34:af:89:cf:d6:5f:03:d8:1d:77:
         64:e5:10:82:cf:43:81:38:d4:b9:8a:78:2f:7f:df:90:e1:a9:
         44:24:d7:0a
-----BEGIN CERTIFICATE-----
MIIHBDCCBeygAwIBAgIJAJMlgPHvvyXrMA0GCSqGSIb3DQEBDQUAMIG9MQswCQYD
VQQGEwJDWTEQMA4GA1UECBMHTmljb3NpYTEgMB4GA1UEBxMXUGFsYWlwYWZvdSA3
LCBTdHJvdm9sb3MxGzAZBgNVBAoTEkFuZHJlYXMgRWNvbm9taWRlczElMCMGA1UE
CxMcSW50ZXJuZXQgRW5jcnlwdGlvbiBEaXZpc2lvbjE2MDQGA1UEAxMtQW5kcmVh
cyBFY29ub21pZGVzIFJvb3QgQ2VydGlmaWNhdGUgQXV0aG9yaXR5MB4XDTE3MDgy
NTA5MDgxNVoXDTIyMDgyNDA5MDgxNVowgZ8xCzAJBgNVBAYTAkNZMRAwDgYDVQQI
EwdOaWNvc2lhMSAwHgYDVQQHExdQYWxhaXBhZm91IDcsIFN0cm92b2xvczEbMBkG
A1UEChMSQW5kcmVhcyBFY29ub21pZGVzMSUwIwYDVQQLExxJbnRlcm5ldCBFbmNy
eXB0aW9uIERpdmlzaW9uMRgwFgYDVQQDEw9yYXNwYmVycnlwaS5sYW4wggEiMA0G
CSqGSIb3DQEBAQUAA4IBDwAwggEKAoIBAQDTk/6cco9ibQIjfgqFQVhkMjnyIV5I
7kRvOrVxQ/TDIIFI8+M7pGEV+3uyXgl4LCRvdKFDn1116DH6ShEscmHgobv77Wae
fUAwadnALZx/RPBLrSNXkGWPWSIPTBjMR8jrN3+heZpVknEjasWmYSkZXS25l8xo
RLyupGxvbhC0Iu7QLDNZ+WpiLXcuTiPzalDe1EyOaUxAFBcQLI4kzlYjXD+XeQTm
48gtw9rdOLYQQcMsIWxhXGK9+SAsQ5eLL40LEOzBIRoQYND9krWrZZN08Bk4dKqA
QZCihj7Mkc0y6R0gN3PySnJbF5hxEema7Q4boUfl5nA5g8HtZ22BXD0TAgMBAAGj
ggMhMIIDHTAMBgNVHRMBAf8EAjAAMBEGCWCGSAGG+EIBAQQEAwIGQDA/BglghkgB
hvhCAQMEMhYwaHR0cDovL3Jhc3BiZXJyeXBpLmxhbi9jYS9yYXNwYmVycnlwaV9s
YW4uY2EuY3JsMA4GA1UdDwEB/wQEAwIDKDATBgNVHSUEDDAKBggrBgEFBQcDATB9
BgNVHRIEdjB0hjBodHRwOi8vcmFzcGJlcnJ5cGkubGFuL2NhL3Jhc3BiZXJyeXBp
X2xhbi5jYS5jcnSCD3Jhc3BiZXJyeXBpLmxhboIRKi5yYXNwYmVycnlwaS5sYW6B
HGFudHJvc2Vjb25vbWlkZXNAaG90bWFpbC5jb20wcAYDVR0RBGkwZ4YwaHR0cDov
L3Jhc3BiZXJyeXBpLmxhbi9jYS9yYXNwYmVycnlwaV9sYW4uY2EuY3J0gRxhbnRy
b3NlY29ub21pZGVzQGhvdG1haWwuY29tgg9yYXNwYmVycnlwaS5sYW6HBMCoAf4w
HQYDVR0OBBYEFJGSmxl1W9xOfeJ+FACduPlzt3c0MIHyBgNVHSMEgeowgeeAFArZ
s6ROZdTrg0HNASXzMQ7ebrPyoYHDpIHAMIG9MQswCQYDVQQGEwJDWTEQMA4GA1UE
CBMHTmljb3NpYTEgMB4GA1UEBxMXUGFsYWlwYWZvdSA3LCBTdHJvdm9sb3MxGzAZ
BgNVBAoTEkFuZHJlYXMgRWNvbm9taWRlczElMCMGA1UECxMcSW50ZXJuZXQgRW5j
cnlwdGlvbiBEaXZpc2lvbjE2MDQGA1UEAxMtQW5kcmVhcyBFY29ub21pZGVzIFJv
b3QgQ2VydGlmaWNhdGUgQXV0aG9yaXR5ggkAkyWA8e+/JeEwTAYIKwYBBQUHAQEE
QDA+MDwGCCsGAQUFBzAChjBodHRwOi8vcmFzcGJlcnJ5cGkubGFuL2NhL3Jhc3Bi
ZXJyeXBpX2xhbi5jYS5jcnQwQQYDVR0fBDowODA2oDSgMoYwaHR0cDovL3Jhc3Bi
ZXJyeXBpLmxhbi9jYS9yYXNwYmVycnlwaV9sYW4uY2EuY3JsMA0GCSqGSIb3DQEB
DQUAA4IBAQAj8NiYLQeIHrLc6ch0qjtOb/jjwAzwONJwjLEJL7N8DSQeWQ8E2dee
71G4IBDEJAWdYScpWtcaaPksOwI9cEvf+RoaE1yQp5NbMYOtzbbUHT6lN1Ux+k9c
mQh6vnHriTxILgtAhqsXbsAKa5HZS6woi6guc4N9/n8lSb+TyFovGB75snkdPeYz
PgQzzc1aEqWmNkkegvzCN8KIwQ9ZRuOShxiHsvwQQnf1xFUb7tQ679jPD0ZKobMj
f/nsfFVbKXOC0fsgrDandvnYeb+9WqNgV1zE1pObbL/mUD6qKcmDVjSvic/WXwPY
HXdk5RCCz0OBONS5ingvf9+Q4alEJNcK
-----END CERTIFICATE-----
