Certificate:
    Data:
        Version: 3 (0x2)
        Serial Number:
            93:25:80:f1:ef:bf:25:e1
    Signature Algorithm: sha512WithRSAEncryption
        Issuer: C=CY, ST=Nicosia, L=Palaipafou 7, Strovolos, O=Andreas Economides, OU=Internet Encryption Division, CN=Andreas Economides Root Certificate Authority
        Validity
            Not Before: May 27 12:53:10 2017 GMT
            Not After : May 26 12:53:10 2022 GMT
        Subject: C=CY, ST=Nicosia, L=Palaipafou 7, Strovolos, O=Andreas Economides, OU=Internet Encryption Division, CN=Andreas Economides Root Certificate Authority
        Subject Public Key Info:
            Public Key Algorithm: rsaEncryption
                Public-Key: (2048 bit)
                Modulus:
                    00:bd:c9:be:7b:e7:ac:a0:4d:f7:bd:53:39:6c:bc:
                    70:ff:4c:fd:05:ec:c5:08:62:9f:8f:0e:d6:a4:ed:
                    08:68:2b:96:94:84:e2:71:a5:01:48:65:ab:8d:dc:
                    52:2d:89:a0:8d:b7:a9:bb:68:79:8c:27:b1:76:c1:
                    10:33:aa:a3:a2:81:68:86:9e:4a:6b:52:92:e2:6e:
                    c0:77:e4:6a:36:a4:2b:a3:04:78:dc:0c:91:5b:96:
                    16:88:2f:80:53:cd:6f:be:2e:d7:5e:f4:4b:31:e6:
                    a4:ec:a5:98:e9:6b:fb:6a:1f:c5:5c:33:30:1b:9d:
                    5b:72:10:02:df:76:7e:37:c5:ce:c8:d1:36:eb:16:
                    37:af:48:10:99:fa:08:94:1a:6f:4d:f8:81:d4:57:
                    28:47:8d:6d:16:d9:ba:1e:a3:3a:3a:8c:63:3f:34:
                    16:b1:26:f6:f1:fd:08:10:73:4a:9c:02:69:c8:53:
                    07:8f:76:03:be:78:c8:6b:8e:24:a6:f5:33:fe:b7:
                    26:4a:99:de:9c:69:27:c0:d7:a9:be:87:0b:bd:5d:
                    e8:08:0f:cc:87:44:b3:01:e4:4f:76:97:0f:ca:f9:
                    45:de:0a:6d:93:d0:cb:44:f8:18:2f:2f:56:45:7d:
                    3c:4b:65:96:2f:fc:dc:fb:5c:9e:a2:b1:4c:c4:e1:
                    4a:e3
                Exponent: 65537 (0x10001)
        X509v3 extensions:
            X509v3 Basic Constraints: critical
                CA:TRUE, pathlen:0
            Netscape Cert Type: 
                Object Signing, SSL CA, S/MIME CA, Object Signing CA
            Netscape Comment: 
                Andreas Economides Root Certificate Authority
            Netscape Revocation Url: 
                http://raspberrypi.lan/ca/raspberrypi_lan.ca.crl
            Netscape CA Revocation Url: 
                http://raspberrypi.lan/ca/raspberrypi_lan.ca.crl
            X509v3 Key Usage: critical
                Certificate Sign, CRL Sign
            X509v3 Extended Key Usage: 
                TLS Web Server Authentication, TLS Web Client Authentication, Code Signing, E-mail Protection, Time Stamping
            X509v3 Issuer Alternative Name: 
                URI:http://raspberrypi.lan/ca/raspberrypi_lan.ca.crt, DNS:raspberrypi.lan, DNS:*.raspberrypi.lan, email:antroseconomides@hotmail.com
            X509v3 Subject Alternative Name: 
                URI:http://raspberrypi.lan/ca/raspberrypi_lan.ca.crt, DNS:raspberrypi.lan, DNS:*.raspberrypi.lan, email:antroseconomides@hotmail.com
            X509v3 Subject Key Identifier: 
                0A:D9:B3:A4:4E:65:D4:EB:83:41:CD:01:25:F3:31:0E:DE:6E:B3:F2
            X509v3 Authority Key Identifier: 
                keyid:0A:D9:B3:A4:4E:65:D4:EB:83:41:CD:01:25:F3:31:0E:DE:6E:B3:F2
                DirName:/C=CY/ST=Nicosia/L=Palaipafou 7, Strovolos/O=Andreas Economides/OU=Internet Encryption Division/CN=Andreas Economides Root Certificate Authority
                serial:93:25:80:F1:EF:BF:25:E1

            Authority Information Access: 
                CA Issuers - URI:http://raspberrypi.lan/ca/raspberrypi_lan.ca.crt

            X509v3 CRL Distribution Points: 

                Full Name:
                  URI:http://raspberrypi.lan/ca/raspberrypi_lan.ca.crl

    Signature Algorithm: sha512WithRSAEncryption
         9c:50:20:9f:33:8f:b6:61:1a:27:af:09:90:4a:87:dd:87:8b:
         fd:0e:9e:2e:17:70:62:7b:a2:08:11:92:15:45:ee:60:96:8b:
         b7:50:0c:9f:71:6b:b2:29:d9:36:eb:ec:1a:bd:96:0d:57:de:
         01:6a:a5:2d:9b:4f:72:27:69:be:7d:3c:9c:53:e4:ec:62:da:
         e3:35:5e:57:05:86:f2:d3:19:55:9b:f5:a7:be:b9:15:bd:80:
         ef:ec:d8:12:04:32:bf:cf:46:bc:81:a2:ff:f8:56:08:cf:a6:
         0d:0e:1b:2c:fd:a9:30:a3:d0:d0:58:0a:f6:34:d2:59:e8:56:
         d5:7b:dd:c0:3f:2a:7d:0c:24:06:e3:ad:65:6e:e2:b3:12:d2:
         59:a9:8e:49:0c:ef:d8:60:ed:f1:df:01:f8:ab:c2:eb:81:72:
         8f:d8:1f:72:4f:ab:17:75:27:d7:35:4e:7f:0c:e5:f9:51:c7:
         a8:72:15:7a:12:58:9d:6d:f5:d8:7c:11:4b:06:54:82:a7:63:
         bc:65:91:ae:95:0d:25:2c:f4:2b:fc:2f:db:6f:97:b8:86:a2:
         79:54:ea:04:c1:f4:a2:a9:22:94:56:af:35:14:66:57:74:18:
         06:4e:7e:83:fa:99:09:fc:36:c0:aa:39:9e:75:c4:52:c2:15:
         0e:9e:e4:00
-----BEGIN CERTIFICATE-----
MIIH3DCCBsSgAwIBAgIJAJMlgPHvvyXhMA0GCSqGSIb3DQEBDQUAMIG9MQswCQYD
VQQGEwJDWTEQMA4GA1UECBMHTmljb3NpYTEgMB4GA1UEBxMXUGFsYWlwYWZvdSA3
LCBTdHJvdm9sb3MxGzAZBgNVBAoTEkFuZHJlYXMgRWNvbm9taWRlczElMCMGA1UE
CxMcSW50ZXJuZXQgRW5jcnlwdGlvbiBEaXZpc2lvbjE2MDQGA1UEAxMtQW5kcmVh
cyBFY29ub21pZGVzIFJvb3QgQ2VydGlmaWNhdGUgQXV0aG9yaXR5MB4XDTE3MDUy
NzEyNTMxMFoXDTIyMDUyNjEyNTMxMFowgb0xCzAJBgNVBAYTAkNZMRAwDgYDVQQI
EwdOaWNvc2lhMSAwHgYDVQQHExdQYWxhaXBhZm91IDcsIFN0cm92b2xvczEbMBkG
A1UEChMSQW5kcmVhcyBFY29ub21pZGVzMSUwIwYDVQQLExxJbnRlcm5ldCBFbmNy
eXB0aW9uIERpdmlzaW9uMTYwNAYDVQQDEy1BbmRyZWFzIEVjb25vbWlkZXMgUm9v
dCBDZXJ0aWZpY2F0ZSBBdXRob3JpdHkwggEiMA0GCSqGSIb3DQEBAQUAA4IBDwAw
ggEKAoIBAQC9yb5756ygTfe9UzlsvHD/TP0F7MUIYp+PDtak7QhoK5aUhOJxpQFI
ZauN3FItiaCNt6m7aHmMJ7F2wRAzqqOigWiGnkprUpLibsB35Go2pCujBHjcDJFb
lhaIL4BTzW++Ltde9Esx5qTspZjpa/tqH8VcMzAbnVtyEALfdn43xc7I0TbrFjev
SBCZ+giUGm9N+IHUVyhHjW0W2boeozo6jGM/NBaxJvbx/QgQc0qcAmnIUwePdgO+
eMhrjiSm9TP+tyZKmd6caSfA16m+hwu9XegID8yHRLMB5E92lw/K+UXeCm2T0MtE
+BgvL1ZFfTxLZZYv/Nz7XJ6isUzE4UrjAgMBAAGjggPbMIID1zASBgNVHRMBAf8E
CDAGAQH/AgEAMBEGCWCGSAGG+EIBAQQEAwIAFzA8BglghkgBhvhCAQ0ELxYtQW5k
cmVhcyBFY29ub21pZGVzIFJvb3QgQ2VydGlmaWNhdGUgQXV0aG9yaXR5MD8GCWCG
SAGG+EIBAwQyFjBodHRwOi8vcmFzcGJlcnJ5cGkubGFuL2NhL3Jhc3BiZXJyeXBp
X2xhbi5jYS5jcmwwPwYJYIZIAYb4QgEEBDIWMGh0dHA6Ly9yYXNwYmVycnlwaS5s
YW4vY2EvcmFzcGJlcnJ5cGlfbGFuLmNhLmNybDAOBgNVHQ8BAf8EBAMCAQYwOwYD
VR0lBDQwMgYIKwYBBQUHAwEGCCsGAQUFBwMCBggrBgEFBQcDAwYIKwYBBQUHAwQG
CCsGAQUFBwMIMH0GA1UdEgR2MHSGMGh0dHA6Ly9yYXNwYmVycnlwaS5sYW4vY2Ev
cmFzcGJlcnJ5cGlfbGFuLmNhLmNydIIPcmFzcGJlcnJ5cGkubGFughEqLnJhc3Bi
ZXJyeXBpLmxhboEcYW50cm9zZWNvbm9taWRlc0Bob3RtYWlsLmNvbTB9BgNVHREE
djB0hjBodHRwOi8vcmFzcGJlcnJ5cGkubGFuL2NhL3Jhc3BiZXJyeXBpX2xhbi5j
YS5jcnSCD3Jhc3BiZXJyeXBpLmxhboIRKi5yYXNwYmVycnlwaS5sYW6BHGFudHJv
c2Vjb25vbWlkZXNAaG90bWFpbC5jb20wHQYDVR0OBBYEFArZs6ROZdTrg0HNASXz
MQ7ebrPyMIHyBgNVHSMEgeowgeeAFArZs6ROZdTrg0HNASXzMQ7ebrPyoYHDpIHA
MIG9MQswCQYDVQQGEwJDWTEQMA4GA1UECBMHTmljb3NpYTEgMB4GA1UEBxMXUGFs
YWlwYWZvdSA3LCBTdHJvdm9sb3MxGzAZBgNVBAoTEkFuZHJlYXMgRWNvbm9taWRl
czElMCMGA1UECxMcSW50ZXJuZXQgRW5jcnlwdGlvbiBEaXZpc2lvbjE2MDQGA1UE
AxMtQW5kcmVhcyBFY29ub21pZGVzIFJvb3QgQ2VydGlmaWNhdGUgQXV0aG9yaXR5
ggkAkyWA8e+/JeEwTAYIKwYBBQUHAQEEQDA+MDwGCCsGAQUFBzAChjBodHRwOi8v
cmFzcGJlcnJ5cGkubGFuL2NhL3Jhc3BiZXJyeXBpX2xhbi5jYS5jcnQwQQYDVR0f
BDowODA2oDSgMoYwaHR0cDovL3Jhc3BiZXJyeXBpLmxhbi9jYS9yYXNwYmVycnlw
aV9sYW4uY2EuY3JsMA0GCSqGSIb3DQEBDQUAA4IBAQCcUCCfM4+2YRonrwmQSofd
h4v9Dp4uF3Bie6IIEZIVRe5glou3UAyfcWuyKdk26+wavZYNV94BaqUtm09yJ2m+
fTycU+TsYtrjNV5XBYby0xlVm/WnvrkVvYDv7NgSBDK/z0a8gaL/+FYIz6YNDhss
/akwo9DQWAr2NNJZ6FbVe93APyp9DCQG461lbuKzEtJZqY5JDO/YYO3x3wH4q8Lr
gXKP2B9yT6sXdSfXNU5/DOX5UceochV6ElidbfXYfBFLBlSCp2O8ZZGulQ0lLPQr
/C/bb5e4hqJ5VOoEwfSiqSKUVq81FGZXdBgGTn6D+pkJ/DbAqjmedcRSwhUOnuQA
-----END CERTIFICATE-----
