Certificate:
    Data:
        Version: 3 (0x2)
        Serial Number: 17746211697102869348 (0xf6473583dab2d364)
    Signature Algorithm: sha512WithRSAEncryption
        Issuer: C=CY, ST=Nicosia, L=Home, O=Antros Economides, OU=Network services, CN=Economides Root Certificate Authority
        Validity
            Not Before: Mar 30 17:37:20 2018 GMT
            Not After : Mar 30 17:37:20 2019 GMT
        Subject: C=CY, ST=Nicosia, L=Home, O=Antros Economides, OU=Network services, CN=raspberrypi.home
        Subject Public Key Info:
            Public Key Algorithm: rsaEncryption
                Public-Key: (4096 bit)
                Modulus:
                    00:d4:4b:b4:49:75:df:c0:05:74:11:bf:08:a5:c4:
                    88:59:a1:ab:e2:26:47:a8:dd:be:a8:67:cf:9e:46:
                    d3:99:05:9a:4d:9a:b7:95:b2:0c:4a:fc:8e:bd:86:
                    6a:ec:a4:e1:27:9e:aa:d8:e5:37:a2:a7:9a:83:1c:
                    bd:0d:26:95:3f:de:aa:42:09:a3:ac:a8:37:bc:cb:
                    f1:04:8e:9b:f0:2c:f6:2b:8f:a5:db:ad:21:fd:4e:
                    09:1b:86:3a:3e:9a:ba:50:ac:f2:d5:46:3d:04:5e:
                    38:c2:1d:85:d8:2d:48:05:0d:f4:24:94:a6:dc:92:
                    e0:38:8d:ac:48:c6:87:36:ee:97:fc:52:51:94:97:
                    17:98:d8:01:7d:d6:3d:fb:ae:0f:b9:85:88:50:aa:
                    56:ea:a2:ac:b2:a7:7b:d4:4b:26:50:0f:a7:65:5a:
                    b0:81:6a:44:ef:d4:66:cb:d1:2e:c4:ac:ba:39:80:
                    c2:59:8d:65:97:4a:1f:84:5b:1e:64:fb:e0:53:48:
                    aa:e6:77:11:50:10:5c:c7:9a:f8:c6:bc:da:a6:32:
                    e9:41:db:d4:c6:25:b2:f7:f7:ff:2c:75:81:47:db:
                    6c:e9:23:61:6c:25:a2:c6:de:9f:a0:30:3f:11:53:
                    41:42:45:3c:55:ae:b0:ff:46:cd:e2:a2:e2:35:29:
                    84:07:07:4d:2c:7e:77:e7:87:b2:2d:a6:a7:8a:9f:
                    6e:5d:58:46:98:90:38:98:4e:8c:b8:a6:f5:c2:aa:
                    0f:06:b0:8c:ec:75:17:37:36:9f:18:de:2c:3c:4b:
                    f8:94:34:70:17:f7:c5:ca:aa:bc:00:d7:f0:b8:15:
                    5c:8b:26:30:85:99:ad:b1:0a:55:dd:48:b0:63:74:
                    17:fd:5b:1d:37:19:9e:ee:78:61:b6:e9:f4:5b:28:
                    26:02:46:b2:f5:65:64:3c:3e:6e:95:ed:c6:db:1f:
                    2c:ef:32:2e:86:df:c2:c6:8a:d0:05:77:a3:44:2a:
                    5d:77:24:75:aa:5d:f7:7f:e8:84:40:8b:d9:c6:dc:
                    cd:7c:f3:bd:de:62:73:0a:d9:23:9f:ed:f2:22:e0:
                    7d:e3:b8:31:6d:6c:4b:33:11:8f:23:a0:a7:25:57:
                    29:ce:5c:74:a1:c7:66:f2:ac:b7:87:b7:cb:bd:e1:
                    1c:cf:ab:64:90:2f:51:6e:6e:28:12:7c:c5:ab:5d:
                    99:90:57:40:45:3b:ac:48:7d:1b:c9:ee:89:d4:d1:
                    c8:18:6e:96:11:14:f1:5e:f0:25:23:cc:81:02:62:
                    0e:4d:2c:fb:f3:25:6f:c2:07:3b:15:28:e8:80:e3:
                    b0:cd:b6:e0:15:00:fc:89:ef:2c:16:2b:ef:fc:d7:
                    9d:3d:a9
                Exponent: 65537 (0x10001)
        X509v3 extensions:
            X509v3 Basic Constraints: critical
                CA:FALSE
            Netscape Cert Type: 
                SSL Server
            Netscape Revocation Url: 
                http://raspberrypi.home/ca/raspberrypi_home.ca.crl
            X509v3 Key Usage: critical
                Key Encipherment, Key Agreement
            X509v3 Extended Key Usage: 
                TLS Web Server Authentication
            X509v3 Issuer Alternative Name: 
                URI:http://raspberrypi.home/ca/raspberrypi_home.ca.crt, DNS:raspberrypi.home, DNS:*.raspberrypi.home, email:ca@raspberrypi.home
            X509v3 Subject Alternative Name: 
                URI:http://raspberrypi.home/ca/raspberrypi_home.ca.crt, email:ca@raspberrypi.home, DNS:raspberrypi.home, DNS:raspberrypi, IP Address:192.168.1.254
            X509v3 Subject Key Identifier: 
                90:5B:D9:04:12:EB:4B:83:07:2A:E5:B8:AD:0D:B6:17:43:D8:22:46
            X509v3 Authority Key Identifier: 
                keyid:DE:3A:A7:3C:CE:0D:29:8D:06:B2:3D:F3:EA:88:A2:59:E8:2D:75:21
                DirName:/C=CY/ST=Nicosia/L=Home/O=Antros Economides/OU=Network services/CN=Economides Root Certificate Authority
                serial:F6:47:35:83:DA:B2:D3:63

            Authority Information Access: 
                CA Issuers - URI:http://raspberrypi.home/ca/raspberrypi_home.ca.crt

            X509v3 CRL Distribution Points: 

                Full Name:
                  URI:http://raspberrypi.home/ca/raspberrypi_home.ca.crl

    Signature Algorithm: sha512WithRSAEncryption
         79:92:b5:31:ad:9b:3b:40:1a:5a:ad:97:b5:a3:d9:c9:78:0c:
         d7:a2:51:3b:06:65:58:4d:6c:54:b8:6e:db:e2:9f:cb:53:28:
         97:2d:5c:fa:bf:89:c2:4b:76:28:7d:3e:b3:ef:47:34:6b:51:
         3c:56:6d:43:24:dd:05:7a:c0:bb:4b:c7:87:e1:3a:de:3c:f9:
         48:ea:f9:90:5c:43:d5:9c:d3:7f:fd:a8:52:d5:d3:15:d4:d4:
         d7:dd:12:44:e1:6a:30:74:83:d6:5a:81:d4:4b:66:9c:4c:a8:
         71:54:64:da:f5:43:ec:96:3c:49:50:5a:23:5a:a7:00:00:45:
         28:05:b1:77:c3:11:19:33:a4:65:79:e5:99:8c:9f:54:d1:81:
         69:5a:b7:39:c0:d6:ab:99:4f:95:89:b8:ec:24:98:9d:a4:1f:
         a6:4b:a7:82:b9:0b:a3:11:b9:f2:d2:f6:1e:05:eb:95:0f:20:
         56:fa:f2:41:69:95:f4:24:e1:f0:35:7c:9c:59:6f:fb:13:77:
         77:d3:d7:dc:56:9c:74:b4:a1:73:0e:4c:50:32:6b:4b:55:dd:
         74:43:3b:71:2a:8e:b9:c4:27:41:32:1e:27:ce:5e:4e:72:42:
         e9:13:5d:b6:b8:42:b1:5a:03:0c:9c:b8:a8:2b:29:19:93:4b:
         04:c5:00:40:ce:35:73:11:53:b1:e3:5c:13:3d:d6:7c:76:74:
         b9:08:44:91:e0:33:05:ed:ce:3c:69:5e:be:57:e2:44:a0:cb:
         aa:e1:55:84:e5:b5:40:48:0f:a8:cb:76:8d:85:57:fb:1c:1d:
         4d:49:37:76:7d:34:da:7a:f6:42:75:ea:7b:92:00:3d:8f:3f:
         42:ab:61:6b:3b:cd:1c:6e:11:37:ca:02:40:b3:7e:72:5d:67:
         f8:54:8b:34:d4:f1:45:29:23:da:3c:f9:bd:ae:ad:e8:46:8a:
         c9:dd:df:fd:71:be:76:15:3f:85:84:0d:b9:50:a1:6e:7b:21:
         2a:8b:69:2c:cd:52:ff:3d:31:2a:b9:33:24:fa:12:2f:d3:4f:
         f0:65:41:0d:27:f8:02:0f:3a:e9:eb:c8:8d:29:ac:6d:94:66:
         f4:18:39:46:a8:54:94:3e:8f:41:94:20:93:19:2d:3f:31:8a:
         2d:4b:8e:b0:5e:0f:0f:bb:85:64:db:12:11:5e:b3:08:be:07:
         c8:ce:99:db:25:b0:22:77:aa:87:69:8c:bf:e1:c1:c3:5d:9c:
         f1:1c:99:b3:c4:b2:ea:2f:66:aa:de:30:b0:b5:2a:df:61:5a:
         1b:0d:ad:6a:20:ed:54:6b:f2:06:ef:10:53:8f:47:b3:58:b3:
         c9:75:99:74:fc:bc:eb:8c
-----BEGIN CERTIFICATE-----
MIIInTCCBoWgAwIBAgIJAPZHNYPastNkMA0GCSqGSIb3DQEBDQUAMIGVMQswCQYD
VQQGEwJDWTEQMA4GA1UECBMHTmljb3NpYTENMAsGA1UEBxMESG9tZTEaMBgGA1UE
ChMRQW50cm9zIEVjb25vbWlkZXMxGTAXBgNVBAsTEE5ldHdvcmsgc2VydmljZXMx
LjAsBgNVBAMTJUVjb25vbWlkZXMgUm9vdCBDZXJ0aWZpY2F0ZSBBdXRob3JpdHkw
HhcNMTgwMzMwMTczNzIwWhcNMTkwMzMwMTczNzIwWjCBgDELMAkGA1UEBhMCQ1kx
EDAOBgNVBAgTB05pY29zaWExDTALBgNVBAcTBEhvbWUxGjAYBgNVBAoTEUFudHJv
cyBFY29ub21pZGVzMRkwFwYDVQQLExBOZXR3b3JrIHNlcnZpY2VzMRkwFwYDVQQD
ExByYXNwYmVycnlwaS5ob21lMIICIjANBgkqhkiG9w0BAQEFAAOCAg8AMIICCgKC
AgEA1Eu0SXXfwAV0Eb8IpcSIWaGr4iZHqN2+qGfPnkbTmQWaTZq3lbIMSvyOvYZq
7KThJ56q2OU3oqeagxy9DSaVP96qQgmjrKg3vMvxBI6b8Cz2K4+l260h/U4JG4Y6
Ppq6UKzy1UY9BF44wh2F2C1IBQ30JJSm3JLgOI2sSMaHNu6X/FJRlJcXmNgBfdY9
+64PuYWIUKpW6qKssqd71EsmUA+nZVqwgWpE79Rmy9EuxKy6OYDCWY1ll0ofhFse
ZPvgU0iq5ncRUBBcx5r4xrzapjLpQdvUxiWy9/f/LHWBR9ts6SNhbCWixt6foDA/
EVNBQkU8Va6w/0bN4qLiNSmEBwdNLH5354eyLaanip9uXVhGmJA4mE6MuKb1wqoP
BrCM7HUXNzafGN4sPEv4lDRwF/fFyqq8ANfwuBVciyYwhZmtsQpV3UiwY3QX/Vsd
Nxme7nhhtun0WygmAkay9WVkPD5ule3G2x8s7zIuht/CxorQBXejRCpddyR1ql33
f+iEQIvZxtzNfPO93mJzCtkjn+3yIuB947gxbWxLMxGPI6CnJVcpzlx0ocdm8qy3
h7fLveEcz6tkkC9Rbm4oEnzFq12ZkFdARTusSH0bye6J1NHIGG6WERTxXvAlI8yB
AmIOTSz78yVvwgc7FSjogOOwzbbgFQD8ie8sFivv/NedPakCAwEAAaOCAwEwggL9
MAwGA1UdEwEB/wQCMAAwEQYJYIZIAYb4QgEBBAQDAgZAMEEGCWCGSAGG+EIBAwQ0
FjJodHRwOi8vcmFzcGJlcnJ5cGkuaG9tZS9jYS9yYXNwYmVycnlwaV9ob21lLmNh
LmNybDAOBgNVHQ8BAf8EBAMCAygwEwYDVR0lBAwwCgYIKwYBBQUHAwEweAYDVR0S
BHEwb4YyaHR0cDovL3Jhc3BiZXJyeXBpLmhvbWUvY2EvcmFzcGJlcnJ5cGlfaG9t
ZS5jYS5jcnSCEHJhc3BiZXJyeXBpLmhvbWWCEioucmFzcGJlcnJ5cGkuaG9tZYET
Y2FAcmFzcGJlcnJ5cGkuaG9tZTB3BgNVHREEcDBuhjJodHRwOi8vcmFzcGJlcnJ5
cGkuaG9tZS9jYS9yYXNwYmVycnlwaV9ob21lLmNhLmNydIETY2FAcmFzcGJlcnJ5
cGkuaG9tZYIQcmFzcGJlcnJ5cGkuaG9tZYILcmFzcGJlcnJ5cGmHBMCoAf4wHQYD
VR0OBBYEFJBb2QQS60uDByrluK0NthdD2CJGMIHKBgNVHSMEgcIwgb+AFN46pzzO
DSmNBrI98+qIolnoLXUhoYGbpIGYMIGVMQswCQYDVQQGEwJDWTEQMA4GA1UECBMH
Tmljb3NpYTENMAsGA1UEBxMESG9tZTEaMBgGA1UEChMRQW50cm9zIEVjb25vbWlk
ZXMxGTAXBgNVBAsTEE5ldHdvcmsgc2VydmljZXMxLjAsBgNVBAMTJUVjb25vbWlk
ZXMgUm9vdCBDZXJ0aWZpY2F0ZSBBdXRob3JpdHmCCQD2RzWD2rLTYzBOBggrBgEF
BQcBAQRCMEAwPgYIKwYBBQUHMAKGMmh0dHA6Ly9yYXNwYmVycnlwaS5ob21lL2Nh
L3Jhc3BiZXJyeXBpX2hvbWUuY2EuY3J0MEMGA1UdHwQ8MDowOKA2oDSGMmh0dHA6
Ly9yYXNwYmVycnlwaS5ob21lL2NhL3Jhc3BiZXJyeXBpX2hvbWUuY2EuY3JsMA0G
CSqGSIb3DQEBDQUAA4ICAQB5krUxrZs7QBparZe1o9nJeAzXolE7BmVYTWxUuG7b
4p/LUyiXLVz6v4nCS3YofT6z70c0a1E8Vm1DJN0FesC7S8eH4TrePPlI6vmQXEPV
nNN//ahS1dMV1NTX3RJE4WowdIPWWoHUS2acTKhxVGTa9UPsljxJUFojWqcAAEUo
BbF3wxEZM6RleeWZjJ9U0YFpWrc5wNarmU+VibjsJJidpB+mS6eCuQujEbny0vYe
BeuVDyBW+vJBaZX0JOHwNXycWW/7E3d309fcVpx0tKFzDkxQMmtLVd10QztxKo65
xCdBMh4nzl5OckLpE122uEKxWgMMnLioKykZk0sExQBAzjVzEVOx41wTPdZ8dnS5
CESR4DMF7c48aV6+V+JEoMuq4VWE5bVASA+oy3aNhVf7HB1NSTd2fTTaevZCdep7
kgA9jz9Cq2FrO80cbhE3ygJAs35yXWf4VIs01PFFKSPaPPm9rq3oRorJ3d/9cb52
FT+FhA25UKFueyEqi2kszVL/PTEquTMk+hIv00/wZUENJ/gCDzrp68iNKaxtlGb0
GDlGqFSUPo9BlCCTGS0/MYotS46wXg8Pu4Vk2xIRXrMIvgfIzpnbJbAid6qHaYy/
4cHDXZzxHJmzxLLqL2aq3jCwtSrfYVobDa1qIO1Ua/IG7xBTj0ezWLPJdZl0/Lzr
jA==
-----END CERTIFICATE-----
